; Function Attrs: mustprogress nounwind uwtable
define hidden void @_ZN11ClassesDCmd7executeE10DCmdSourceP10JavaThread(ptr nocapture noundef nonnull readonly align 8 dereferenceable(96) %0, i32 %1, ptr nocapture readnone %2) unnamed_addr #0 align 2 {
  %4 = alloca %class.VM_PrintClasses, align 8
  %5 = getelementptr inbounds i8, ptr %0, i64 8
  %6 = load ptr, ptr %5, align 8
  %7 = getelementptr inbounds i8, ptr %0, i64 91
  %8 = load i8, ptr %7, align 1
  %9 = and i8 %8, 1
  %10 = getelementptr inbounds i8, ptr %4, i64 8
  store ptr null, ptr %10, align 8
  store ptr getelementptr inbounds inrange(-16, 80) (i8, ptr @_ZTV15VM_PrintClasses, i64 16), ptr %4, align 8
  %11 = getelementptr inbounds i8, ptr %4, i64 16
  store ptr %6, ptr %11, align 8
  %12 = getelementptr inbounds i8, ptr %4, i64 24
  store i8 %9, ptr %12, align 8
  call void @_ZN8VMThread7executeEP12VM_Operation(ptr noundef nonnull %4) #17
  ret void
}